target datalayout = "e-m:e-p270:32:32-p271:32:32-p272:64:64-i64:64-i128:128-f80:128-n8:16:32:64-S128"
target triple = "x86_64-pc-linux-gnu"

%struct.cbb_buffer_st = type { ptr, i64, i64, i8 }
%struct.cbb_st = type { ptr, ptr, i64, i8, i8, i8 }

; Function Attrs: nounwind uwtable
define internal i32 @cbb_init(ptr noundef %0, ptr noundef %1, i64 noundef %2) #0 {
  %4 = alloca i32, align 4
  %5 = alloca ptr, align 8
  %6 = alloca ptr, align 8
  %7 = alloca i64, align 8
  %8 = alloca ptr, align 8
  %9 = alloca i32, align 4
  store ptr %0, ptr %5, align 8, !tbaa !6
  store ptr %1, ptr %6, align 8, !tbaa !13
  store i64 %2, ptr %7, align 8, !tbaa !11
  call void @llvm.lifetime.start.p0(i64 8, ptr %8) #7
  %10 = call noalias ptr @malloc(i64 noundef 32) #8
  store ptr %10, ptr %8, align 8, !tbaa !15
  %11 = load ptr, ptr %8, align 8, !tbaa !15
  %12 = icmp eq ptr %11, null
  br i1 %12, label %13, label %14

13:                                               ; preds = %3
  store i32 0, ptr %4, align 4
  store i32 1, ptr %9, align 4
  br label %30

14:                                               ; preds = %3
  %15 = load ptr, ptr %6, align 8, !tbaa !13
  %16 = load ptr, ptr %8, align 8, !tbaa !15
  %17 = getelementptr inbounds nuw %struct.cbb_buffer_st, ptr %16, i32 0, i32 0
  store ptr %15, ptr %17, align 8, !tbaa !17
  %18 = load ptr, ptr %8, align 8, !tbaa !15
  %19 = getelementptr inbounds nuw %struct.cbb_buffer_st, ptr %18, i32 0, i32 1
  store i64 0, ptr %19, align 8, !tbaa !19
  %20 = load i64, ptr %7, align 8, !tbaa !11
  %21 = load ptr, ptr %8, align 8, !tbaa !15
  %22 = getelementptr inbounds nuw %struct.cbb_buffer_st, ptr %21, i32 0, i32 2
  store i64 %20, ptr %22, align 8, !tbaa !20
  %23 = load ptr, ptr %8, align 8, !tbaa !15
  %24 = getelementptr inbounds nuw %struct.cbb_buffer_st, ptr %23, i32 0, i32 3
  store i8 1, ptr %24, align 8, !tbaa !21
  %25 = load ptr, ptr %8, align 8, !tbaa !15
  %26 = load ptr, ptr %5, align 8, !tbaa !6
  %27 = getelementptr inbounds nuw %struct.cbb_st, ptr %26, i32 0, i32 0
  store ptr %25, ptr %27, align 8, !tbaa !22
  %28 = load ptr, ptr %5, align 8, !tbaa !6
  %29 = getelementptr inbounds nuw %struct.cbb_st, ptr %28, i32 0, i32 5
  store i8 1, ptr %29, align 2, !tbaa !24
  store i32 1, ptr %4, align 4
  store i32 1, ptr %9, align 4
  br label %30

30:                                               ; preds = %14, %13
  call void @llvm.lifetime.end.p0(i64 8, ptr %8) #7
  %31 = load i32, ptr %4, align 4
  ret i32 %31
}

; Function Attrs: nounwind uwtable
define hidden void @CBB_zero(ptr noundef %0) #0 {
  %2 = alloca ptr, align 8
  store ptr %0, ptr %2, align 8, !tbaa !6
  %3 = load ptr, ptr %2, align 8, !tbaa !6
  call void @llvm.memset.p0.i64(ptr align 8 %3, i8 0, i64 32, i1 false)
  ret void
}

; Function Attrs: nounwind uwtable
define hidden i32 @CBB_init(ptr noundef %0, i64 noundef %1) #0 {
  %3 = alloca i32, align 4
  %4 = alloca ptr, align 8
  %5 = alloca i64, align 8
  %6 = alloca ptr, align 8
  %7 = alloca i32, align 4
  store ptr %0, ptr %4, align 8, !tbaa !6
  store i64 %1, ptr %5, align 8, !tbaa !11
  %8 = load ptr, ptr %4, align 8, !tbaa !6
  call void @CBB_zero(ptr noundef %8)
  call void @llvm.lifetime.start.p0(i64 8, ptr %6) #7
  %9 = load i64, ptr %5, align 8, !tbaa !11
  %10 = call noalias ptr @malloc(i64 noundef %9) #8
  store ptr %10, ptr %6, align 8, !tbaa !13
  %11 = load i64, ptr %5, align 8, !tbaa !11
  %12 = icmp ugt i64 %11, 0
  br i1 %12, label %13, label %17

13:                                               ; preds = %2
  %14 = load ptr, ptr %6, align 8, !tbaa !13
  %15 = icmp eq ptr %14, null
  br i1 %15, label %16, label %17

16:                                               ; preds = %13
  store i32 0, ptr %3, align 4
  store i32 1, ptr %7, align 4
  br label %26

17:                                               ; preds = %13, %2
  %18 = load ptr, ptr %4, align 8, !tbaa !6
  %19 = load ptr, ptr %6, align 8, !tbaa !13
  %20 = load i64, ptr %5, align 8, !tbaa !11
  %21 = call i32 @cbb_init(ptr noundef %18, ptr noundef %19, i64 noundef %20)
  %22 = icmp ne i32 %21, 0
  br i1 %22, label %25, label %23

23:                                               ; preds = %17
  %24 = load ptr, ptr %6, align 8, !tbaa !13
  call void @free(ptr noundef %24) #7
  store i32 0, ptr %3, align 4
  store i32 1, ptr %7, align 4
  br label %26

25:                                               ; preds = %17
  store i32 1, ptr %3, align 4
  store i32 1, ptr %7, align 4
  br label %26

26:                                               ; preds = %25, %23, %16
  call void @llvm.lifetime.end.p0(i64 8, ptr %6) #7
  %27 = load i32, ptr %3, align 4
  ret i32 %27
}