; Function Attrs: mustprogress nounwind willreturn memory(readwrite, argmem: write) uwtable
define hidden range(i32 0, 2) i32 @CBB_init(ptr noundef writeonly captures(none) initializes((0, 32)) %0, i64 noundef %1) local_unnamed_addr #2 {
  tail call void @llvm.memset.p0.i64(ptr noundef nonnull align 8 dereferenceable(32) %0, i8 0, i64 32, i1 false)
  %3 = tail call noalias ptr @malloc(i64 noundef %1) #14
  %4 = icmp ne i64 %1, 0
  %5 = icmp eq ptr %3, null
  %or.cond = and i1 %4, %5
  br i1 %or.cond, label %14, label %6

6:                                                ; preds = %2
  %7 = tail call noalias dereferenceable_or_null(32) ptr @malloc(i64 noundef 32) #14
  %8 = icmp eq ptr %7, null
  br i1 %8, label %13, label %cbb_init.exit

cbb_init.exit:                                    ; preds = %6
  store ptr %3, ptr %7, align 8, !tbaa !6
  %9 = getelementptr inbounds nuw i8, ptr %7, i64 8
  store i64 0, ptr %9, align 8, !tbaa !13
  %10 = getelementptr inbounds nuw i8, ptr %7, i64 16
  store i64 %1, ptr %10, align 8, !tbaa !14
  %11 = getelementptr inbounds nuw i8, ptr %7, i64 24
  store i8 1, ptr %11, align 8, !tbaa !15
  store ptr %7, ptr %0, align 8, !tbaa !16
  %12 = getelementptr inbounds nuw i8, ptr %0, i64 26
  store i8 1, ptr %12, align 2, !tbaa !20
  br label %14

13:                                               ; preds = %6
  tail call void @free(ptr noundef %3) #15
  br label %14

14:                                               ; preds = %cbb_init.exit, %2, %13
  %.0 = phi i32 [ 0, %13 ], [ 0, %2 ], [ 1, %cbb_init.exit ]
  ret i32 %.0
}